target datalayout = "e-m:e-p270:32:32-p271:32:32-p272:64:64-i64:64-i128:128-f80:128-n8:16:32:64-S128"
target triple = "x86_64-pc-linux-gnu"

%struct._wmem_tree_key_t = type { i32, ptr }
%struct._packet_info = type { ptr, ptr, i32, i32, %struct.nstime_t, %struct.nstime_t, %struct.nstime_t, i8, ptr, ptr, ptr, ptr, %struct._address, %struct._address, %struct._address, %struct._address, %struct._address, %struct._address, i32, ptr, i8, [3 x i8], %struct.anon, i32, i32, i32, i32, ptr, i8, ptr, ptr, i16, i16, i32, i32, i16, i32, i32, ptr, ptr, ptr, i8, i8, i16, i16, i16, i32, i16, i16, ptr, ptr, ptr, ptr, ptr, i32, i32 }
%struct.nstime_t = type { i64, i32 }
%struct._address = type { i32, i32, ptr, ptr }
%struct.anon = type { i8, [3 x i8] }
%struct._bluetooth_data_t = type { i32, i32, ptr, ptr, ptr, ptr, ptr, ptr, ptr, ptr, ptr, ptr, ptr, i32, %union.anon }
%union.anon = type { ptr }
%struct._mtu_data_t = type { i32 }

@mtus = internal global ptr null, align 8

; Function Attrs: null_pointer_is_valid sspstrong uwtable
define internal void @save_mtu(ptr noundef %0, ptr noundef %1, i32 noundef %2) #0 {
  %4 = alloca ptr, align 8
  %5 = alloca ptr, align 8
  %6 = alloca i32, align 4
  %7 = alloca [4 x %struct._wmem_tree_key_t], align 16
  %8 = alloca i32, align 4
  %9 = alloca ptr, align 8
  store ptr %0, ptr %4, align 8
  store ptr %1, ptr %5, align 8
  store i32 %2, ptr %6, align 4
  call void @llvm.lifetime.start.p0(i64 64, ptr %7) #12
  call void @llvm.lifetime.start.p0(i64 4, ptr %8) #12
  call void @llvm.lifetime.start.p0(i64 8, ptr %9) #12
  %10 = load ptr, ptr %4, align 8
  %11 = getelementptr inbounds nuw %struct._packet_info, ptr %10, i32 0, i32 3
  %12 = load i32, ptr %11, align 4
  store i32 %12, ptr %8, align 4
  %13 = getelementptr [4 x %struct._wmem_tree_key_t], ptr %7, i64 0, i64 0
  %14 = getelementptr inbounds nuw %struct._wmem_tree_key_t, ptr %13, i32 0, i32 0
  store i32 1, ptr %14, align 16
  %15 = load ptr, ptr %5, align 8
  %16 = getelementptr inbounds nuw %struct._bluetooth_data_t, ptr %15, i32 0, i32 0
  %17 = getelementptr [4 x %struct._wmem_tree_key_t], ptr %7, i64 0, i64 0
  %18 = getelementptr inbounds nuw %struct._wmem_tree_key_t, ptr %17, i32 0, i32 1
  store ptr %16, ptr %18, align 8
  %19 = getelementptr [4 x %struct._wmem_tree_key_t], ptr %7, i64 0, i64 1
  %20 = getelementptr inbounds nuw %struct._wmem_tree_key_t, ptr %19, i32 0, i32 0
  store i32 1, ptr %20, align 16
  %21 = load ptr, ptr %5, align 8
  %22 = getelementptr inbounds nuw %struct._bluetooth_data_t, ptr %21, i32 0, i32 1
  %23 = getelementptr [4 x %struct._wmem_tree_key_t], ptr %7, i64 0, i64 1
  %24 = getelementptr inbounds nuw %struct._wmem_tree_key_t, ptr %23, i32 0, i32 1
  store ptr %22, ptr %24, align 8
  %25 = getelementptr [4 x %struct._wmem_tree_key_t], ptr %7, i64 0, i64 2
  %26 = getelementptr inbounds nuw %struct._wmem_tree_key_t, ptr %25, i32 0, i32 0
  store i32 1, ptr %26, align 16
  %27 = getelementptr [4 x %struct._wmem_tree_key_t], ptr %7, i64 0, i64 2
  %28 = getelementptr inbounds nuw %struct._wmem_tree_key_t, ptr %27, i32 0, i32 1
  store ptr %8, ptr %28, align 8
  %29 = getelementptr [4 x %struct._wmem_tree_key_t], ptr %7, i64 0, i64 3
  %30 = getelementptr inbounds nuw %struct._wmem_tree_key_t, ptr %29, i32 0, i32 0
  store i32 0, ptr %30, align 16
  %31 = getelementptr [4 x %struct._wmem_tree_key_t], ptr %7, i64 0, i64 3
  %32 = getelementptr inbounds nuw %struct._wmem_tree_key_t, ptr %31, i32 0, i32 1
  store ptr null, ptr %32, align 8
  %33 = call ptr @wmem_file_scope()
  %34 = call noalias ptr @wmem_alloc(ptr noundef %33, i64 noundef 4) #15
  store ptr %34, ptr %9, align 8
  %35 = load i32, ptr %6, align 4
  %36 = load ptr, ptr %9, align 8
  %37 = getelementptr inbounds nuw %struct._mtu_data_t, ptr %36, i32 0, i32 0
  store i32 %35, ptr %37, align 4
  %38 = load ptr, ptr @mtus, align 8
  %39 = getelementptr inbounds [4 x %struct._wmem_tree_key_t], ptr %7, i64 0, i64 0
  %40 = load ptr, ptr %9, align 8
  call void @wmem_tree_insert32_array(ptr noundef %38, ptr noundef %39, ptr noundef %40)
  call void @llvm.lifetime.end.p0(i64 8, ptr %9) #12
  call void @llvm.lifetime.end.p0(i64 4, ptr %8) #12
  call void @llvm.lifetime.end.p0(i64 64, ptr %7) #12
  ret void
}