; Function Attrs: null_pointer_is_valid sspstrong uwtable
define internal fastcc void @save_mtu(i32 %.20.val, ptr noundef nonnull %0, i32 noundef range(i32 0, 65536) %1) unnamed_addr #1 {
  %3 = alloca [4 x %struct._wmem_tree_key_t], align 16
  %4 = alloca i32, align 4
  call void @llvm.lifetime.start.p0(i64 64, ptr nonnull %3) #14
  call void @llvm.lifetime.start.p0(i64 4, ptr nonnull %4) #14
  store i32 %.20.val, ptr %4, align 4
  store i32 1, ptr %3, align 16
  %5 = getelementptr inbounds nuw i8, ptr %3, i64 8
  store ptr %0, ptr %5, align 8
  %6 = getelementptr inbounds nuw i8, ptr %3, i64 16
  store i32 1, ptr %6, align 16
  %7 = getelementptr inbounds nuw i8, ptr %0, i64 4
  %8 = getelementptr inbounds nuw i8, ptr %3, i64 24
  store ptr %7, ptr %8, align 8
  %9 = getelementptr inbounds nuw i8, ptr %3, i64 32
  store i32 1, ptr %9, align 16
  %10 = getelementptr inbounds nuw i8, ptr %3, i64 40
  store ptr %4, ptr %10, align 8
  %11 = getelementptr inbounds nuw i8, ptr %3, i64 48
  store i32 0, ptr %11, align 16
  %12 = getelementptr inbounds nuw i8, ptr %3, i64 56
  store ptr null, ptr %12, align 8
  %13 = call ptr @wmem_file_scope()
  %14 = call noalias dereferenceable_or_null(4) ptr @wmem_alloc(ptr noundef %13, i64 noundef 4) #15
  store i32 %1, ptr %14, align 4
  %15 = load ptr, ptr @mtus, align 8
  call void @wmem_tree_insert32_array(ptr noundef %15, ptr noundef nonnull %3, ptr noundef %14)
  call void @llvm.lifetime.end.p0(i64 4, ptr nonnull %4) #14
  call void @llvm.lifetime.end.p0(i64 64, ptr nonnull %3) #14
  ret void
}